target datalayout = "e-m:e-p270:32:32-p271:32:32-p272:64:64-i64:64-i128:128-f80:128-n8:16:32:64-S128"
target triple = "x86_64-pc-linux-gnu"

%struct.DdManager = type { %struct.DdNode, ptr, ptr, ptr, ptr, ptr, ptr, ptr, i32, i32, double, double, double, i32, i32, i32, i32, i32, i32, ptr, ptr, %struct.DdSubtable, i32, i32, i32, i32, i32, i32, i32, double, i32, i32, i32, ptr, i64, double, i32, ptr, ptr, ptr, ptr, ptr, ptr, ptr, i32, ptr, ptr, ptr, ptr, ptr, ptr, i32, i32, i32, double, i32, i32, i32, i32, double, double, i32, i32, i32, i32, i32, i32, i32, i32, i32, ptr, ptr, i32, i32, i32, i32, i32, i32, ptr, ptr, ptr, ptr, ptr, ptr, ptr, ptr, i32, i64, i64, i64, i32, i64, i64, double, double, double, double, double, double, i32, ptr, ptr, i64 }
%struct.DdNode = type { i32, i32, ptr, %union.anon, i64 }
%union.anon = type { %struct.DdChildren }
%struct.DdChildren = type { ptr, ptr }
%struct.DdSubtable = type { ptr, i32, i32, i32, i32, i32, i32, i32, i32, i32, i32, i32 }
%struct.DdCache = type { ptr, ptr, i64, ptr, i32 }

; Function Attrs: nounwind uwtable
define ptr @cuddCacheLookup1Zdd(ptr noundef %0, ptr noundef %1, ptr noundef %2) #0 {
  %4 = alloca ptr, align 8
  %5 = alloca ptr, align 8
  %6 = alloca ptr, align 8
  %7 = alloca ptr, align 8
  %8 = alloca i32, align 4
  %9 = alloca ptr, align 8
  %10 = alloca ptr, align 8
  %11 = alloca ptr, align 8
  %12 = alloca i32, align 4
  store ptr %0, ptr %5, align 8, !tbaa !3
  store ptr %1, ptr %6, align 8, !tbaa !58
  store ptr %2, ptr %7, align 8, !tbaa !52
  call void @llvm.lifetime.start.p0(i64 4, ptr %8) #6
  call void @llvm.lifetime.start.p0(i64 8, ptr %9) #6
  call void @llvm.lifetime.start.p0(i64 8, ptr %10) #6
  call void @llvm.lifetime.start.p0(i64 8, ptr %11) #6
  %13 = load ptr, ptr %5, align 8, !tbaa !3
  %14 = getelementptr inbounds nuw %struct.DdManager, ptr %13, i32 0, i32 7
  %15 = load ptr, ptr %14, align 8, !tbaa !31
  store ptr %15, ptr %10, align 8, !tbaa !54
  %16 = load ptr, ptr %7, align 8, !tbaa !52
  %17 = ptrtoint ptr %16 to i64
  %18 = and i64 %17, -2
  %19 = inttoptr i64 %18 to ptr
  %20 = getelementptr inbounds nuw %struct.DdNode, ptr %19, i32 0, i32 4
  %21 = load i64, ptr %20, align 8, !tbaa !53
  %22 = shl i64 %21, 1
  %23 = load ptr, ptr %7, align 8, !tbaa !52
  %24 = ptrtoint ptr %23 to i64
  %25 = and i64 %24, 1
  %26 = trunc i64 %25 to i32
  %27 = sext i32 %26 to i64
  %28 = or i64 %22, %27
  %29 = trunc i64 %28 to i32
  %30 = load ptr, ptr %6, align 8, !tbaa !58
  %31 = ptrtoint ptr %30 to i64
  %32 = trunc i64 %31 to i32
  %33 = add i32 %29, %32
  %34 = mul i32 %33, 12582917
  %35 = load ptr, ptr %7, align 8, !tbaa !52
  %36 = ptrtoint ptr %35 to i64
  %37 = and i64 %36, -2
  %38 = inttoptr i64 %37 to ptr
  %39 = getelementptr inbounds nuw %struct.DdNode, ptr %38, i32 0, i32 4
  %40 = load i64, ptr %39, align 8, !tbaa !53
  %41 = shl i64 %40, 1
  %42 = load ptr, ptr %7, align 8, !tbaa !52
  %43 = ptrtoint ptr %42 to i64
  %44 = and i64 %43, 1
  %45 = trunc i64 %44 to i32
  %46 = sext i32 %45 to i64
  %47 = or i64 %41, %46
  %48 = trunc i64 %47 to i32
  %49 = add i32 %34, %48
  %50 = mul i32 %49, 4256249
  %51 = load ptr, ptr %5, align 8, !tbaa !3
  %52 = getelementptr inbounds nuw %struct.DdManager, ptr %51, i32 0, i32 9
  %53 = load i32, ptr %52, align 4, !tbaa !34
  %54 = lshr i32 %50, %53
  store i32 %54, ptr %8, align 4, !tbaa !8
  %55 = load ptr, ptr %10, align 8, !tbaa !54
  %56 = load i32, ptr %8, align 4, !tbaa !8
  %57 = sext i32 %56 to i64
  %58 = getelementptr inbounds %struct.DdCache, ptr %55, i64 %57
  store ptr %58, ptr %9, align 8, !tbaa !54
  %59 = load ptr, ptr %9, align 8, !tbaa !54
  %60 = getelementptr inbounds nuw %struct.DdCache, ptr %59, i32 0, i32 3
  %61 = load ptr, ptr %60, align 8, !tbaa !48
  %62 = icmp ne ptr %61, null
  br i1 %62, label %63, label %98

63:                                               ; preds = %3
  %64 = load ptr, ptr %9, align 8, !tbaa !54
  %65 = getelementptr inbounds nuw %struct.DdCache, ptr %64, i32 0, i32 0
  %66 = load ptr, ptr %65, align 8, !tbaa !55
  %67 = load ptr, ptr %7, align 8, !tbaa !52
  %68 = icmp eq ptr %66, %67
  br i1 %68, label %69, label %98

69:                                               ; preds = %63
  %70 = load ptr, ptr %9, align 8, !tbaa !54
  %71 = getelementptr inbounds nuw %struct.DdCache, ptr %70, i32 0, i32 2
  %72 = load i64, ptr %71, align 8, !tbaa !46
  %73 = load ptr, ptr %6, align 8, !tbaa !58
  %74 = ptrtoint ptr %73 to i64
  %75 = icmp eq i64 %72, %74
  br i1 %75, label %76, label %98

76:                                               ; preds = %69
  %77 = load ptr, ptr %9, align 8, !tbaa !54
  %78 = getelementptr inbounds nuw %struct.DdCache, ptr %77, i32 0, i32 3
  %79 = load ptr, ptr %78, align 8, !tbaa !48
  %80 = ptrtoint ptr %79 to i64
  %81 = and i64 %80, -2
  %82 = inttoptr i64 %81 to ptr
  store ptr %82, ptr %11, align 8, !tbaa !52
  %83 = load ptr, ptr %5, align 8, !tbaa !3
  %84 = getelementptr inbounds nuw %struct.DdManager, ptr %83, i32 0, i32 11
  %85 = load double, ptr %84, align 8, !tbaa !39
  %86 = fadd double %85, 1.000000e+00
  store double %86, ptr %84, align 8, !tbaa !39
  %87 = load ptr, ptr %11, align 8, !tbaa !52
  %88 = getelementptr inbounds nuw %struct.DdNode, ptr %87, i32 0, i32 1
  %89 = load i32, ptr %88, align 4, !tbaa !59
  %90 = icmp eq i32 %89, 0
  br i1 %90, label %91, label %94

91:                                               ; preds = %76
  %92 = load ptr, ptr %5, align 8, !tbaa !3
  %93 = load ptr, ptr %11, align 8, !tbaa !52
  call void @cuddReclaimZdd(ptr noundef %92, ptr noundef %93)
  br label %94

94:                                               ; preds = %91, %76
  %95 = load ptr, ptr %9, align 8, !tbaa !54
  %96 = getelementptr inbounds nuw %struct.DdCache, ptr %95, i32 0, i32 3
  %97 = load ptr, ptr %96, align 8, !tbaa !48
  store ptr %97, ptr %4, align 8
  store i32 1, ptr %12, align 4
  br label %122

98:                                               ; preds = %69, %63, %3
  %99 = load ptr, ptr %5, align 8, !tbaa !3
  %100 = getelementptr inbounds nuw %struct.DdManager, ptr %99, i32 0, i32 10
  %101 = load double, ptr %100, align 8, !tbaa !38
  %102 = fadd double %101, 1.000000e+00
  store double %102, ptr %100, align 8, !tbaa !38
  %103 = load ptr, ptr %5, align 8, !tbaa !3
  %104 = getelementptr inbounds nuw %struct.DdManager, ptr %103, i32 0, i32 13
  %105 = load i32, ptr %104, align 8, !tbaa !36
  %106 = icmp sge i32 %105, 0
  br i1 %106, label %107, label %121

107:                                              ; preds = %98
  %108 = load ptr, ptr %5, align 8, !tbaa !3
  %109 = getelementptr inbounds nuw %struct.DdManager, ptr %108, i32 0, i32 11
  %110 = load double, ptr %109, align 8, !tbaa !39
  %111 = load ptr, ptr %5, align 8, !tbaa !3
  %112 = getelementptr inbounds nuw %struct.DdManager, ptr %111, i32 0, i32 10
  %113 = load double, ptr %112, align 8, !tbaa !38
  %114 = load ptr, ptr %5, align 8, !tbaa !3
  %115 = getelementptr inbounds nuw %struct.DdManager, ptr %114, i32 0, i32 12
  %116 = load double, ptr %115, align 8, !tbaa !37
  %117 = fmul double %113, %116
  %118 = fcmp ogt double %110, %117
  br i1 %118, label %119, label %121

119:                                              ; preds = %107
  %120 = load ptr, ptr %5, align 8, !tbaa !3
  call void @cuddCacheResize(ptr noundef %120)
  br label %121

121:                                              ; preds = %119, %107, %98
  store ptr null, ptr %4, align 8
  store i32 1, ptr %12, align 4
  br label %122

122:                                              ; preds = %121, %94
  call void @llvm.lifetime.end.p0(i64 8, ptr %11) #6
  call void @llvm.lifetime.end.p0(i64 8, ptr %10) #6
  call void @llvm.lifetime.end.p0(i64 8, ptr %9) #6
  call void @llvm.lifetime.end.p0(i64 4, ptr %8) #6
  %123 = load ptr, ptr %4, align 8
  ret ptr %123
}