; Function Attrs: nounwind uwtable
define ptr @cuddCacheLookup1Zdd(ptr noundef %0, ptr noundef %1, ptr noundef %2) local_unnamed_addr #0 {
  %4 = getelementptr inbounds nuw i8, ptr %0, i64 88
  %5 = load ptr, ptr %4, align 8, !tbaa !28
  %6 = ptrtoint ptr %2 to i64
  %7 = and i64 %6, -2
  %8 = inttoptr i64 %7 to ptr
  %9 = getelementptr inbounds nuw i8, ptr %8, i64 32
  %10 = load i64, ptr %9, align 8, !tbaa !40
  %11 = shl i64 %10, 1
  %12 = and i64 %6, 1
  %13 = or disjoint i64 %11, %12
  %14 = trunc i64 %13 to i32
  %15 = ptrtoint ptr %1 to i64
  %16 = trunc i64 %15 to i32
  %17 = add i32 %14, %16
  %18 = mul i32 %17, 12582917
  %19 = add i32 %18, %14
  %20 = mul i32 %19, 4256249
  %21 = getelementptr inbounds nuw i8, ptr %0, i64 100
  %22 = load i32, ptr %21, align 4, !tbaa !31
  %23 = lshr i32 %20, %22
  %24 = sext i32 %23 to i64
  %25 = getelementptr inbounds %struct.DdCache, ptr %5, i64 %24
  %26 = getelementptr inbounds nuw i8, ptr %25, i64 24
  %27 = load ptr, ptr %26, align 8, !tbaa !41
  %.not = icmp eq ptr %27, null
  br i1 %.not, label %46, label %28

28:                                               ; preds = %3
  %29 = load ptr, ptr %25, align 8, !tbaa !45
  %30 = icmp eq ptr %29, %2
  br i1 %30, label %31, label %46

31:                                               ; preds = %28
  %32 = getelementptr inbounds nuw i8, ptr %25, i64 16
  %33 = load i64, ptr %32, align 8, !tbaa !47
  %34 = icmp eq i64 %33, %15
  br i1 %34, label %35, label %46

35:                                               ; preds = %31
  %36 = ptrtoint ptr %27 to i64
  %37 = and i64 %36, -2
  %38 = inttoptr i64 %37 to ptr
  %39 = getelementptr inbounds nuw i8, ptr %0, i64 112
  %40 = load double, ptr %39, align 8, !tbaa !36
  %41 = fadd double %40, 1.000000e+00
  store double %41, ptr %39, align 8, !tbaa !36
  %42 = getelementptr inbounds nuw i8, ptr %38, i64 4
  %43 = load i32, ptr %42, align 4, !tbaa !49
  %44 = icmp eq i32 %43, 0
  br i1 %44, label %45, label %61

45:                                               ; preds = %35
  tail call void @cuddReclaimZdd(ptr noundef nonnull %0, ptr noundef nonnull %38) #14
  %.pre = load ptr, ptr %26, align 8, !tbaa !41
  br label %61

46:                                               ; preds = %31, %28, %3
  %47 = getelementptr inbounds nuw i8, ptr %0, i64 104
  %48 = load double, ptr %47, align 8, !tbaa !35
  %49 = fadd double %48, 1.000000e+00
  store double %49, ptr %47, align 8, !tbaa !35
  %50 = getelementptr inbounds nuw i8, ptr %0, i64 128
  %51 = load i32, ptr %50, align 8, !tbaa !33
  %52 = icmp sgt i32 %51, -1
  br i1 %52, label %53, label %61

53:                                               ; preds = %46
  %54 = getelementptr inbounds nuw i8, ptr %0, i64 112
  %55 = load double, ptr %54, align 8, !tbaa !36
  %56 = getelementptr inbounds nuw i8, ptr %0, i64 120
  %57 = load double, ptr %56, align 8, !tbaa !34
  %58 = fmul double %49, %57
  %59 = fcmp ogt double %55, %58
  br i1 %59, label %60, label %61

60:                                               ; preds = %53
  tail call void @cuddCacheResize(ptr noundef nonnull %0)
  br label %61

61:                                               ; preds = %35, %45, %46, %53, %60
  %.0 = phi ptr [ null, %60 ], [ null, %53 ], [ null, %46 ], [ %.pre, %45 ], [ %27, %35 ]
  ret ptr %.0
}